; Function Attrs: mustprogress nounwind uwtable
define hidden noundef i64 @_ZN8XBarrier17relocate_or_remapEm(i64 noundef %0) local_unnamed_addr #0 align 2 {
  %2 = load i32, ptr @XGlobalPhase, align 4
  %3 = icmp eq i32 %2, 2
  %4 = load ptr, ptr @_ZN5XHeap5_heapE, align 8
  %5 = load i64, ptr @XAddressOffsetMask, align 8
  %6 = and i64 %5, %0
  %7 = lshr i64 %6, 21
  %8 = getelementptr inbounds i8, ptr %4, i64 816
  %9 = load ptr, ptr %8, align 8
  %10 = getelementptr inbounds ptr, ptr %9, i64 %7
  %11 = load ptr, ptr %10, align 8
  %12 = icmp eq ptr %11, null
  br i1 %3, label %13, label %22

13:                                               ; preds = %1
  br i1 %12, label %14, label %17

14:                                               ; preds = %13
  %15 = load i64, ptr @XAddressGoodMask, align 8
  %16 = or i64 %15, %6
  br label %_ZN8XBarrier8relocateEm.exit

17:                                               ; preds = %13
  %18 = getelementptr inbounds i8, ptr %4, i64 3408
  %19 = load i64, ptr @XAddressGoodMask, align 8
  %20 = or i64 %19, %6
  %21 = tail call noundef i64 @_ZNK9XRelocate15relocate_objectEP11XForwardingm(ptr noundef nonnull align 8 dereferenceable(8) %18, ptr noundef nonnull %11, i64 noundef %20) #9
  br label %_ZN8XBarrier8relocateEm.exit

22:                                               ; preds = %1
  br i1 %12, label %23, label %26

23:                                               ; preds = %22
  %24 = load i64, ptr @XAddressGoodMask, align 8
  %25 = or i64 %24, %6
  br label %_ZN8XBarrier8relocateEm.exit

26:                                               ; preds = %22
  %27 = getelementptr inbounds i8, ptr %4, i64 3408
  %28 = load i64, ptr @XAddressGoodMask, align 8
  %29 = or i64 %28, %6
  %30 = tail call noundef i64 @_ZNK9XRelocate14forward_objectEP11XForwardingm(ptr noundef nonnull align 8 dereferenceable(8) %27, ptr noundef nonnull %11, i64 noundef %29) #9
  br label %_ZN8XBarrier8relocateEm.exit

_ZN8XBarrier8relocateEm.exit:                     ; preds = %26, %23, %17, %14
  %31 = phi i64 [ %16, %14 ], [ %21, %17 ], [ %25, %23 ], [ %30, %26 ]
  ret i64 %31
}